; Function Attrs: nofree nounwind null_pointer_is_valid sspstrong uwtable
define void @ws_log_add_custom_file(ptr noundef %0) local_unnamed_addr #8 {
  %2 = load ptr, ptr @custom_log, align 8
  %.not = icmp eq ptr %2, null
  br i1 %.not, label %5, label %3

3:                                                ; preds = %1
  %4 = tail call i32 @fclose(ptr noundef nonnull %2)
  br label %5

5:                                                ; preds = %3, %1
  store ptr %0, ptr @custom_log, align 8
  ret void
}